target datalayout = "e-m:e-p270:32:32-p271:32:32-p272:64:64-i64:64-i128:128-f80:128-n8:16:32:64-S128"
target triple = "x86_64-pc-linux-gnu"

; Function Attrs: nounwind uwtable
define dso_local ptr @setTypeNextObject(ptr noundef %0) #0 {
  %2 = alloca ptr, align 8
  %3 = alloca ptr, align 8
  %4 = alloca i64, align 8
  %5 = alloca ptr, align 8
  %6 = alloca i64, align 8
  %7 = alloca i32, align 4
  store ptr %0, ptr %3, align 8, !tbaa !47
  call void @llvm.lifetime.start.p0(i64 8, ptr %4) #10
  call void @llvm.lifetime.start.p0(i64 8, ptr %5) #10
  call void @llvm.lifetime.start.p0(i64 8, ptr %6) #10
  %8 = load ptr, ptr %3, align 8, !tbaa !47
  %9 = call i32 @setTypeNext(ptr noundef %8, ptr noundef %5, ptr noundef %6, ptr noundef %4)
  %10 = icmp eq i32 %9, -1
  br i1 %10, label %11, label %12

11:                                               ; preds = %1
  store ptr null, ptr %2, align 8
  store i32 1, ptr %7, align 4
  br label %22

12:                                               ; preds = %1
  %13 = load ptr, ptr %5, align 8, !tbaa !5
  %14 = icmp ne ptr %13, null
  br i1 %14, label %15, label %19

15:                                               ; preds = %12
  %16 = load ptr, ptr %5, align 8, !tbaa !5
  %17 = load i64, ptr %6, align 8, !tbaa !10
  %18 = call ptr @sdsnewlen(ptr noundef %16, i64 noundef %17)
  store ptr %18, ptr %2, align 8
  store i32 1, ptr %7, align 4
  br label %22

19:                                               ; preds = %12
  %20 = load i64, ptr %4, align 8, !tbaa !10
  %21 = call ptr @sdsfromlonglong(i64 noundef %20)
  store ptr %21, ptr %2, align 8
  store i32 1, ptr %7, align 4
  br label %22

22:                                               ; preds = %19, %15, %11
  call void @llvm.lifetime.end.p0(i64 8, ptr %6) #10
  call void @llvm.lifetime.end.p0(i64 8, ptr %5) #10
  call void @llvm.lifetime.end.p0(i64 8, ptr %4) #10
  %23 = load ptr, ptr %2, align 8
  ret ptr %23
}