; Function Attrs: nounwind uwtable
define dso_local ptr @setTypeNextObject(ptr noundef captures(none) %0) local_unnamed_addr #0 {
  %2 = alloca i64, align 8
  %3 = alloca ptr, align 8
  %4 = alloca i64, align 8
  call void @llvm.lifetime.start.p0(i64 8, ptr nonnull %2) #10
  call void @llvm.lifetime.start.p0(i64 8, ptr nonnull %3) #10
  call void @llvm.lifetime.start.p0(i64 8, ptr nonnull %4) #10
  %5 = call i32 @setTypeNext(ptr noundef %0, ptr noundef nonnull %3, ptr noundef nonnull %4, ptr noundef nonnull %2)
  %6 = icmp eq i32 %5, -1
  br i1 %6, label %15, label %7

7:                                                ; preds = %1
  %8 = load ptr, ptr %3, align 8, !tbaa !49
  %.not = icmp eq ptr %8, null
  br i1 %.not, label %12, label %9

9:                                                ; preds = %7
  %10 = load i64, ptr %4, align 8, !tbaa !50
  %11 = call ptr @sdsnewlen(ptr noundef nonnull %8, i64 noundef %10) #10
  br label %15

12:                                               ; preds = %7
  %13 = load i64, ptr %2, align 8, !tbaa !50
  %14 = call ptr @sdsfromlonglong(i64 noundef %13) #10
  br label %15

15:                                               ; preds = %1, %12, %9
  %.0 = phi ptr [ %11, %9 ], [ %14, %12 ], [ null, %1 ]
  call void @llvm.lifetime.end.p0(i64 8, ptr nonnull %4) #10
  call void @llvm.lifetime.end.p0(i64 8, ptr nonnull %3) #10
  call void @llvm.lifetime.end.p0(i64 8, ptr nonnull %2) #10
  ret ptr %.0
}